target datalayout = "e-m:e-p270:32:32-p271:32:32-p272:64:64-i64:64-i128:128-f80:128-n8:16:32:64-S128"
target triple = "x86_64-pc-linux-gnu"

%"class.g2o::RobustKernel" = type { ptr, double }
%"struct.Eigen::internal::evaluator" = type { %"struct.Eigen::internal::evaluator.11" }
%"struct.Eigen::internal::evaluator.11" = type { %"class.Eigen::internal::plainobjectbase_evaluator_data" }
%"class.Eigen::internal::plainobjectbase_evaluator_data" = type { ptr }
%"class.Eigen::PlainObjectBase" = type { %"class.Eigen::DenseStorage" }
%"class.Eigen::DenseStorage" = type { %"struct.Eigen::internal::plain_array" }
%"struct.Eigen::internal::plain_array" = type { [3 x double] }

; Function Attrs: inlinehint mustprogress nounwind uwtable
define linkonce_odr void @_ZN5Eigen8internal22ignore_unused_variableIlEEvRKT_(ptr noundef nonnull align 8 dereferenceable(8) %0) #9 comdat {
  %2 = alloca ptr, align 8
  store ptr %0, ptr %2, align 8, !tbaa !139
  ret void
}

; Function Attrs: mustprogress nounwind uwtable
define linkonce_odr noundef ptr @_ZNK5Eigen12DenseStorageIdLi3ELi3ELi1ELi0EE4dataEv(ptr noundef nonnull align 8 dereferenceable(24) %0) #1 comdat align 2 {
  %2 = alloca ptr, align 8
  store ptr %0, ptr %2, align 8, !tbaa !137
  %3 = load ptr, ptr %2, align 8
  %4 = getelementptr inbounds nuw %"class.Eigen::DenseStorage", ptr %3, i32 0, i32 0
  %5 = getelementptr inbounds nuw %"struct.Eigen::internal::plain_array", ptr %4, i32 0, i32 0
  %6 = getelementptr inbounds [3 x double], ptr %5, i64 0, i64 0
  ret ptr %6
}

; Function Attrs: inlinehint mustprogress uwtable
define linkonce_odr void @_ZN5Eigen8internal30plainobjectbase_evaluator_dataIdLi0EEC2EPKdl(ptr noundef nonnull align 8 dereferenceable(8) %0, ptr noundef %1, i64 noundef %2) unnamed_addr #7 comdat align 2 {
  %4 = alloca ptr, align 8
  %5 = alloca ptr, align 8
  %6 = alloca i64, align 8
  store ptr %0, ptr %4, align 8, !tbaa !134
  store ptr %1, ptr %5, align 8, !tbaa !59
  store i64 %2, ptr %6, align 8, !tbaa !37
  %7 = load ptr, ptr %4, align 8
  %8 = getelementptr inbounds nuw %"class.Eigen::internal::plainobjectbase_evaluator_data", ptr %7, i32 0, i32 0
  %9 = load ptr, ptr %5, align 8, !tbaa !59
  store ptr %9, ptr %8, align 8, !tbaa !136
  call void @_ZN5Eigen8internal22ignore_unused_variableIlEEvRKT_(ptr noundef nonnull align 8 dereferenceable(8) %6)
  ret void
}

; Function Attrs: inlinehint mustprogress uwtable
define linkonce_odr noundef ptr @_ZNK5Eigen15PlainObjectBaseINS_6MatrixIdLi3ELi1ELi0ELi3ELi1EEEE4dataEv(ptr noundef nonnull align 8 dereferenceable(24) %0) #7 comdat align 2 {
  %2 = alloca ptr, align 8
  store ptr %0, ptr %2, align 8, !tbaa !132
  %3 = load ptr, ptr %2, align 8
  %4 = getelementptr inbounds nuw %"class.Eigen::PlainObjectBase", ptr %3, i32 0, i32 0
  %5 = call noundef ptr @_ZNK5Eigen12DenseStorageIdLi3ELi3ELi1ELi0EE4dataEv(ptr noundef nonnull align 8 dereferenceable(24) %4)
  ret ptr %5
}

; Function Attrs: inlinehint mustprogress nounwind uwtable
define linkonce_odr void @_ZN5Eigen8internal14evaluator_baseINS_6MatrixIdLi3ELi1ELi0ELi3ELi1EEEEC2Ev(ptr noundef nonnull align 1 dereferenceable(1) %0) unnamed_addr #9 comdat align 2 {
  %2 = alloca ptr, align 8
  store ptr %0, ptr %2, align 8, !tbaa !130
  ret void
}

; Function Attrs: inlinehint mustprogress uwtable
define linkonce_odr void @_ZN5Eigen8internal9evaluatorINS_15PlainObjectBaseINS_6MatrixIdLi3ELi1ELi0ELi3ELi1EEEEEEC2ERKS5_(ptr noundef nonnull align 8 dereferenceable(8) %0, ptr noundef nonnull align 8 dereferenceable(24) %1) unnamed_addr #7 comdat align 2 personality ptr @__gxx_personality_v0 {
  %3 = alloca ptr, align 8
  %4 = alloca ptr, align 8
  %5 = alloca ptr, align 8
  %6 = alloca i32, align 4
  store ptr %0, ptr %3, align 8, !tbaa !125
  store ptr %1, ptr %4, align 8, !tbaa !132
  %7 = load ptr, ptr %3, align 8
  call void @_ZN5Eigen8internal14evaluator_baseINS_6MatrixIdLi3ELi1ELi0ELi3ELi1EEEEC2Ev(ptr noundef nonnull align 1 dereferenceable(1) %7)
  %8 = getelementptr inbounds nuw %"struct.Eigen::internal::evaluator.11", ptr %7, i32 0, i32 0
  %9 = load ptr, ptr %4, align 8, !tbaa !132
  %10 = invoke noundef ptr @_ZNK5Eigen15PlainObjectBaseINS_6MatrixIdLi3ELi1ELi0ELi3ELi1EEEE4dataEv(ptr noundef nonnull align 8 dereferenceable(24) %9)
          to label %11 unwind label %13

11:                                               ; preds = %2
  invoke void @_ZN5Eigen8internal30plainobjectbase_evaluator_dataIdLi0EEC2EPKdl(ptr noundef nonnull align 8 dereferenceable(8) %8, ptr noundef %10, i64 noundef 0)
          to label %12 unwind label %13

12:                                               ; preds = %11
  ret void

13:                                               ; preds = %11, %2
  %14 = landingpad { ptr, i32 }
          cleanup
  %15 = extractvalue { ptr, i32 } %14, 0
  store ptr %15, ptr %5, align 8
  %16 = extractvalue { ptr, i32 } %14, 1
  store i32 %16, ptr %6, align 4
  call void @_ZN5Eigen8internal14evaluator_baseINS_6MatrixIdLi3ELi1ELi0ELi3ELi1EEEED2Ev(ptr noundef nonnull align 1 dereferenceable(1) %7) #6
  br label %17

17:                                               ; preds = %13
  %18 = load ptr, ptr %5, align 8
  %19 = load i32, ptr %6, align 4
  %20 = insertvalue { ptr, i32 } poison, ptr %18, 0
  %21 = insertvalue { ptr, i32 } %20, i32 %19, 1
  resume { ptr, i32 } %21
}

; Function Attrs: inlinehint mustprogress nounwind uwtable
define linkonce_odr void @_ZN5Eigen8internal14evaluator_baseINS_6MatrixIdLi3ELi1ELi0ELi3ELi1EEEED2Ev(ptr noundef nonnull align 1 dereferenceable(1) %0) unnamed_addr #9 comdat align 2 {
  %2 = alloca ptr, align 8
  store ptr %0, ptr %2, align 8, !tbaa !130
  ret void
}

; Function Attrs: inlinehint mustprogress nounwind uwtable
define linkonce_odr noundef nonnull align 8 dereferenceable(8) ptr @_ZN5Eigen8internal9evaluatorINS_15PlainObjectBaseINS_6MatrixIdLi3ELi1ELi0ELi3ELi1EEEEEE8coeffRefEl(ptr noundef nonnull align 8 dereferenceable(8) %0, i64 noundef %1) #9 comdat align 2 {
  %3 = alloca ptr, align 8
  %4 = alloca i64, align 8
  store ptr %0, ptr %3, align 8, !tbaa !125
  store i64 %1, ptr %4, align 8, !tbaa !37
  %5 = load ptr, ptr %3, align 8
  %6 = getelementptr inbounds nuw %"struct.Eigen::internal::evaluator.11", ptr %5, i32 0, i32 0
  %7 = getelementptr inbounds nuw %"class.Eigen::internal::plainobjectbase_evaluator_data", ptr %6, i32 0, i32 0
  %8 = load ptr, ptr %7, align 8, !tbaa !127
  %9 = load i64, ptr %4, align 8, !tbaa !37
  %10 = getelementptr inbounds double, ptr %8, i64 %9
  ret ptr %10
}

; Function Attrs: inlinehint mustprogress uwtable
define linkonce_odr void @_ZN5Eigen8internal9evaluatorINS_6MatrixIdLi3ELi1ELi0ELi3ELi1EEEEC2ERKS3_(ptr noundef nonnull align 8 dereferenceable(8) %0, ptr noundef nonnull align 8 dereferenceable(24) %1) unnamed_addr #7 comdat align 2 {
  %3 = alloca ptr, align 8
  %4 = alloca ptr, align 8
  store ptr %0, ptr %3, align 8, !tbaa !123
  store ptr %1, ptr %4, align 8, !tbaa !22
  %5 = load ptr, ptr %3, align 8
  %6 = load ptr, ptr %4, align 8, !tbaa !22
  call void @_ZN5Eigen8internal9evaluatorINS_15PlainObjectBaseINS_6MatrixIdLi3ELi1ELi0ELi3ELi1EEEEEEC2ERKS5_(ptr noundef nonnull align 8 dereferenceable(8) %5, ptr noundef nonnull align 8 dereferenceable(24) %6)
  ret void
}

; Function Attrs: mustprogress nounwind uwtable
define linkonce_odr noundef nonnull align 8 dereferenceable(24) ptr @_ZN5Eigen9EigenBaseINS_6MatrixIdLi3ELi1ELi0ELi3ELi1EEEE7derivedEv(ptr noundef nonnull align 1 dereferenceable(1) %0) #1 comdat align 2 {
  %2 = alloca ptr, align 8
  store ptr %0, ptr %2, align 8, !tbaa !121
  %3 = load ptr, ptr %2, align 8
  ret ptr %3
}

; Function Attrs: inlinehint mustprogress uwtable
define linkonce_odr noundef nonnull align 8 dereferenceable(8) ptr @_ZN5Eigen15DenseCoeffsBaseINS_6MatrixIdLi3ELi1ELi0ELi3ELi1EEELi1EE8coeffRefEl(ptr noundef nonnull align 1 dereferenceable(1) %0, i64 noundef %1) #7 comdat align 2 personality ptr @__gxx_personality_v0 {
  %3 = alloca ptr, align 8
  %4 = alloca i64, align 8
  %5 = alloca %"struct.Eigen::internal::evaluator", align 8
  %6 = alloca ptr, align 8
  %7 = alloca i32, align 4
  store ptr %0, ptr %3, align 8, !tbaa !35
  store i64 %1, ptr %4, align 8, !tbaa !37
  %8 = load ptr, ptr %3, align 8
  call void @llvm.lifetime.start.p0(i64 8, ptr %5) #6
  %9 = call noundef nonnull align 8 dereferenceable(24) ptr @_ZN5Eigen9EigenBaseINS_6MatrixIdLi3ELi1ELi0ELi3ELi1EEEE7derivedEv(ptr noundef nonnull align 1 dereferenceable(1) %8)
  call void @_ZN5Eigen8internal9evaluatorINS_6MatrixIdLi3ELi1ELi0ELi3ELi1EEEEC2ERKS3_(ptr noundef nonnull align 8 dereferenceable(8) %5, ptr noundef nonnull align 8 dereferenceable(24) %9)
  %10 = load i64, ptr %4, align 8, !tbaa !37
  %11 = invoke noundef nonnull align 8 dereferenceable(8) ptr @_ZN5Eigen8internal9evaluatorINS_15PlainObjectBaseINS_6MatrixIdLi3ELi1ELi0ELi3ELi1EEEEEE8coeffRefEl(ptr noundef nonnull align 8 dereferenceable(8) %5, i64 noundef %10)
          to label %12 unwind label %13

12:                                               ; preds = %2
  call void @_ZN5Eigen8internal14evaluator_baseINS_6MatrixIdLi3ELi1ELi0ELi3ELi1EEEED2Ev(ptr noundef nonnull align 8 dereferenceable(8) %5) #6
  call void @llvm.lifetime.end.p0(i64 8, ptr %5) #6
  ret ptr %11

13:                                               ; preds = %2
  %14 = landingpad { ptr, i32 }
          cleanup
  %15 = extractvalue { ptr, i32 } %14, 0
  store ptr %15, ptr %6, align 8
  %16 = extractvalue { ptr, i32 } %14, 1
  store i32 %16, ptr %7, align 4
  call void @_ZN5Eigen8internal14evaluator_baseINS_6MatrixIdLi3ELi1ELi0ELi3ELi1EEEED2Ev(ptr noundef nonnull align 8 dereferenceable(8) %5) #6
  call void @llvm.lifetime.end.p0(i64 8, ptr %5) #6
  br label %17

17:                                               ; preds = %13
  %18 = load ptr, ptr %6, align 8
  %19 = load i32, ptr %7, align 4
  %20 = insertvalue { ptr, i32 } poison, ptr %18, 0
  %21 = insertvalue { ptr, i32 } %20, i32 %19, 1
  resume { ptr, i32 } %21
}

; Function Attrs: inlinehint mustprogress uwtable
define linkonce_odr noundef nonnull align 8 dereferenceable(8) ptr @_ZN5Eigen15DenseCoeffsBaseINS_6MatrixIdLi3ELi1ELi0ELi3ELi1EEELi1EEixEl(ptr noundef nonnull align 1 dereferenceable(1) %0, i64 noundef %1) #7 comdat align 2 {
  %3 = alloca ptr, align 8
  %4 = alloca i64, align 8
  store ptr %0, ptr %3, align 8, !tbaa !35
  store i64 %1, ptr %4, align 8, !tbaa !37
  %5 = load ptr, ptr %3, align 8
  %6 = load i64, ptr %4, align 8, !tbaa !37
  %7 = call noundef nonnull align 8 dereferenceable(8) ptr @_ZN5Eigen15DenseCoeffsBaseINS_6MatrixIdLi3ELi1ELi0ELi3ELi1EEELi1EE8coeffRefEl(ptr noundef nonnull align 1 dereferenceable(1) %5, i64 noundef %6)
  ret ptr %7
}

; Function Attrs: inlinehint mustprogress nounwind uwtable
define linkonce_odr noundef double @_ZSt3powIdiEN9__gnu_cxx9__promoteIDTplcvNS1_IT_Xsr3std12__is_integerIS2_EE7__valueEE6__typeELi0EcvNS1_IT0_Xsr3std12__is_integerIS5_EE7__valueEE6__typeELi0EEXsr3std12__is_integerIS8_EE7__valueEE6__typeES2_S5_(double noundef %0, i32 noundef %1) #9 comdat {
  %3 = alloca double, align 8
  %4 = alloca i32, align 4
  store double %0, ptr %3, align 8, !tbaa !18
  store i32 %1, ptr %4, align 4, !tbaa !41
  %5 = load double, ptr %3, align 8, !tbaa !18
  %6 = load i32, ptr %4, align 4, !tbaa !41
  %7 = sitofp i32 %6 to double
  %8 = call double @pow(double noundef %5, double noundef %7) #6, !tbaa !41
  ret double %8
}

; Function Attrs: mustprogress uwtable
define void @_ZNK3g2o17RobustKernelTukey9robustifyEdRN5Eigen6MatrixIdLi3ELi1ELi0ELi3ELi1EEE(ptr noundef nonnull align 8 dereferenceable(16) %0, double noundef %1, ptr noundef nonnull align 8 dereferenceable(24) %2) unnamed_addr #3 align 2 {
  %4 = alloca ptr, align 8
  %5 = alloca double, align 8
  %6 = alloca ptr, align 8
  %7 = alloca double, align 8
  %8 = alloca double, align 8
  store ptr %0, ptr %4, align 8, !tbaa !53
  store double %1, ptr %5, align 8, !tbaa !18
  store ptr %2, ptr %6, align 8, !tbaa !22
  %9 = load ptr, ptr %4, align 8
  call void @llvm.lifetime.start.p0(i64 8, ptr %7) #6
  %10 = getelementptr inbounds nuw %"class.g2o::RobustKernel", ptr %9, i32 0, i32 1
  %11 = load double, ptr %10, align 8, !tbaa !24
  %12 = getelementptr inbounds nuw %"class.g2o::RobustKernel", ptr %9, i32 0, i32 1
  %13 = load double, ptr %12, align 8, !tbaa !24
  %14 = fmul double %11, %13
  store double %14, ptr %7, align 8, !tbaa !18
  %15 = load double, ptr %5, align 8, !tbaa !18
  %16 = load double, ptr %7, align 8, !tbaa !18
  %17 = fcmp ole double %15, %16
  br i1 %17, label %18, label %43

18:                                               ; preds = %3
  call void @llvm.lifetime.start.p0(i64 8, ptr %8) #6
  %19 = load double, ptr %5, align 8, !tbaa !18
  %20 = load double, ptr %7, align 8, !tbaa !18
  %21 = fdiv double %19, %20
  store double %21, ptr %8, align 8, !tbaa !18
  %22 = load double, ptr %7, align 8, !tbaa !18
  %23 = load double, ptr %8, align 8, !tbaa !18
  %24 = fsub double 1.000000e+00, %23
  %25 = call noundef double @_ZSt3powIdiEN9__gnu_cxx9__promoteIDTplcvNS1_IT_Xsr3std12__is_integerIS2_EE7__valueEE6__typeELi0EcvNS1_IT0_Xsr3std12__is_integerIS5_EE7__valueEE6__typeELi0EEXsr3std12__is_integerIS8_EE7__valueEE6__typeES2_S5_(double noundef %24, i32 noundef 3)
  %26 = fsub double 1.000000e+00, %25
  %27 = fmul double %22, %26
  %28 = fdiv double %27, 3.000000e+00
  %29 = load ptr, ptr %6, align 8, !tbaa !22
  %30 = call noundef nonnull align 8 dereferenceable(8) ptr @_ZN5Eigen15DenseCoeffsBaseINS_6MatrixIdLi3ELi1ELi0ELi3ELi1EEELi1EEixEl(ptr noundef nonnull align 1 dereferenceable(1) %29, i64 noundef 0)
  store double %28, ptr %30, align 8, !tbaa !18
  %31 = load double, ptr %8, align 8, !tbaa !18
  %32 = fsub double 1.000000e+00, %31
  %33 = call noundef double @_ZSt3powIdiEN9__gnu_cxx9__promoteIDTplcvNS1_IT_Xsr3std12__is_integerIS2_EE7__valueEE6__typeELi0EcvNS1_IT0_Xsr3std12__is_integerIS5_EE7__valueEE6__typeELi0EEXsr3std12__is_integerIS8_EE7__valueEE6__typeES2_S5_(double noundef %32, i32 noundef 2)
  %34 = load ptr, ptr %6, align 8, !tbaa !22
  %35 = call noundef nonnull align 8 dereferenceable(8) ptr @_ZN5Eigen15DenseCoeffsBaseINS_6MatrixIdLi3ELi1ELi0ELi3ELi1EEELi1EEixEl(ptr noundef nonnull align 1 dereferenceable(1) %34, i64 noundef 1)
  store double %33, ptr %35, align 8, !tbaa !18
  %36 = load double, ptr %8, align 8, !tbaa !18
  %37 = fsub double 1.000000e+00, %36
  %38 = fmul double -2.000000e+00, %37
  %39 = load double, ptr %7, align 8, !tbaa !18
  %40 = fdiv double %38, %39
  %41 = load ptr, ptr %6, align 8, !tbaa !22
  %42 = call noundef nonnull align 8 dereferenceable(8) ptr @_ZN5Eigen15DenseCoeffsBaseINS_6MatrixIdLi3ELi1ELi0ELi3ELi1EEELi1EEixEl(ptr noundef nonnull align 1 dereferenceable(1) %41, i64 noundef 2)
  store double %40, ptr %42, align 8, !tbaa !18
  call void @llvm.lifetime.end.p0(i64 8, ptr %8) #6
  br label %52

43:                                               ; preds = %3
  %44 = load double, ptr %7, align 8, !tbaa !18
  %45 = fdiv double %44, 3.000000e+00
  %46 = load ptr, ptr %6, align 8, !tbaa !22
  %47 = call noundef nonnull align 8 dereferenceable(8) ptr @_ZN5Eigen15DenseCoeffsBaseINS_6MatrixIdLi3ELi1ELi0ELi3ELi1EEELi1EEixEl(ptr noundef nonnull align 1 dereferenceable(1) %46, i64 noundef 0)
  store double %45, ptr %47, align 8, !tbaa !18
  %48 = load ptr, ptr %6, align 8, !tbaa !22
  %49 = call noundef nonnull align 8 dereferenceable(8) ptr @_ZN5Eigen15DenseCoeffsBaseINS_6MatrixIdLi3ELi1ELi0ELi3ELi1EEELi1EEixEl(ptr noundef nonnull align 1 dereferenceable(1) %48, i64 noundef 1)
  store double 0.000000e+00, ptr %49, align 8, !tbaa !18
  %50 = load ptr, ptr %6, align 8, !tbaa !22
  %51 = call noundef nonnull align 8 dereferenceable(8) ptr @_ZN5Eigen15DenseCoeffsBaseINS_6MatrixIdLi3ELi1ELi0ELi3ELi1EEELi1EEixEl(ptr noundef nonnull align 1 dereferenceable(1) %50, i64 noundef 2)
  store double 0.000000e+00, ptr %51, align 8, !tbaa !18
  br label %52

52:                                               ; preds = %43, %18
  call void @llvm.lifetime.end.p0(i64 8, ptr %7) #6
  ret void
}