; Function Attrs: mustprogress nofree nounwind willreturn memory(write, argmem: readwrite) uwtable
define void @_ZNK3g2o17RobustKernelTukey9robustifyEdRN5Eigen6MatrixIdLi3ELi1ELi0ELi3ELi1EEE(ptr noundef nonnull readonly align 8 captures(none) dereferenceable(16) %0, double noundef %1, ptr noundef nonnull writeonly align 8 captures(none) dereferenceable(24) initializes((0, 24)) %2) unnamed_addr #6 align 2 personality ptr @__gxx_personality_v0 {
  %4 = getelementptr inbounds nuw i8, ptr %0, i64 8
  %5 = load double, ptr %4, align 8, !tbaa !21
  %6 = fmul double %5, %5
  %7 = fcmp ugt double %1, %6
  br i1 %7, label %16, label %8

8:                                                ; preds = %3
  %9 = fdiv double %1, %6
  %10 = fsub double 1.000000e+00, %9
  %11 = tail call noundef double @pow(double noundef %10, double noundef 3.000000e+00) #21, !tbaa !15
  %12 = fsub double 1.000000e+00, %11
  %13 = fmul double %6, %12
  %square = fmul double %10, %10
  %14 = fmul double %10, -2.000000e+00
  %15 = fdiv double %14, %6
  br label %16

16:                                               ; preds = %3, %8
  %.sink18.in = phi double [ %13, %8 ], [ %6, %3 ]
  %square.sink = phi double [ %square, %8 ], [ 0.000000e+00, %3 ]
  %.sink = phi double [ %15, %8 ], [ 0.000000e+00, %3 ]
  %.sink18 = fdiv double %.sink18.in, 3.000000e+00
  store double %.sink18, ptr %2, align 8, !tbaa !24
  %17 = getelementptr inbounds nuw i8, ptr %2, i64 8
  store double %square.sink, ptr %17, align 8, !tbaa !24
  %18 = getelementptr inbounds nuw i8, ptr %2, i64 16
  store double %.sink, ptr %18, align 8, !tbaa !24
  ret void
}